; Function Attrs: mustprogress nounwind uwtable
define void @_ZN6icu_7518UnicodeSetIteratorD2Ev(ptr noundef nonnull align 8 dereferenceable(64) %this) unnamed_addr #4 align 2 {
entry:
  %cpString = getelementptr inbounds i8, ptr %this, i64 56
  %0 = load ptr, ptr %cpString, align 8
  %isnull = icmp eq ptr %0, null
  br i1 %isnull, label %delete.end, label %delete.notnull

delete.notnull:                                   ; preds = %entry
  %vtable = load ptr, ptr %0, align 8
  %vfn = getelementptr inbounds i8, ptr %vtable, i64 8
  %1 = load ptr, ptr %vfn, align 8
  tail call void %1(ptr noundef nonnull align 8 dereferenceable(64) %0) #7
  br label %delete.end

delete.end:                                       ; preds = %delete.notnull, %entry
  tail call void @_ZN6icu_757UObjectD2Ev(ptr noundef nonnull align 8 dereferenceable(8) %this) #7
  ret void
}